target datalayout = "e-m:e-p270:32:32-p271:32:32-p272:64:64-i64:64-i128:128-f80:128-n8:16:32:64-S128"
target triple = "x86_64-pc-linux-gnu"

%struct.resv_desc_msg = type { ptr, ptr, ptr, i32, i32, i64, ptr, i64, ptr, ptr, ptr, i32, ptr, i32, ptr, ptr, i32, i64, i64, ptr, ptr }

@.str = private unnamed_addr constant [23 x i8] c"No reservation update.\00", align 1
@exit_code = external global i32, align 4
@.str.1 = private unnamed_addr constant [51 x i8] c"Reservation must be given.  No reservation update.\00", align 1
@.str.2 = private unnamed_addr constant [22 x i8] c"Reservation updated.\0A\00", align 1

; Function Attrs: nounwind uwtable
define dso_local i32 @scontrol_update_res(i32 noundef %0, ptr noundef %1) #0 {
  %3 = alloca i32, align 4
  %4 = alloca ptr, align 8
  %5 = alloca %struct.resv_desc_msg, align 8
  %6 = alloca i32, align 4
  %7 = alloca i32, align 4
  store i32 %0, ptr %3, align 4
  store ptr %1, ptr %4, align 8
  call void @llvm.lifetime.start.p0(i64 160, ptr %5) #6
  call void @llvm.lifetime.start.p0(i64 4, ptr %6) #6
  store i32 0, ptr %6, align 4
  call void @llvm.lifetime.start.p0(i64 4, ptr %7) #6
  store i32 0, ptr %7, align 4
  call void @slurm_init_resv_desc_msg(ptr noundef %5)
  %8 = load i32, ptr %3, align 4
  %9 = load ptr, ptr %4, align 8
  %10 = call i32 @_parse_res_options(i32 noundef %8, ptr noundef %9, ptr noundef @.str, ptr noundef %5, ptr noundef %7)
  store i32 %10, ptr %6, align 4
  %11 = load i32, ptr %6, align 4
  %12 = icmp ne i32 %11, 0
  br i1 %12, label %13, label %14

13:                                               ; preds = %2
  br label %30

14:                                               ; preds = %2
  %15 = getelementptr inbounds nuw %struct.resv_desc_msg, ptr %5, i32 0, i32 12
  %16 = load ptr, ptr %15, align 8
  %17 = icmp eq ptr %16, null
  br i1 %17, label %18, label %20

18:                                               ; preds = %14
  store i32 1, ptr @exit_code, align 4
  %19 = call i32 (ptr, ...) @error(ptr noundef @.str.1)
  br label %30

20:                                               ; preds = %14
  %21 = call i32 @slurm_update_reservation(ptr noundef %5)
  store i32 %21, ptr %6, align 4
  %22 = load i32, ptr %6, align 4
  %23 = icmp ne i32 %22, 0
  br i1 %23, label %24, label %27

24:                                               ; preds = %20
  store i32 1, ptr @exit_code, align 4
  %25 = call ptr @__errno_location() #7
  %26 = load i32, ptr %25, align 4
  store i32 %26, ptr %6, align 4
  br label %29

27:                                               ; preds = %20
  %28 = call i32 (ptr, ...) @printf(ptr noundef @.str.2)
  br label %29

29:                                               ; preds = %27, %24
  br label %30

30:                                               ; preds = %29, %18, %13
  %31 = load i32, ptr %7, align 4
  call void @slurm_free_resv_desc_msg_part(ptr noundef %5, i32 noundef %31)
  %32 = load i32, ptr %6, align 4
  call void @llvm.lifetime.end.p0(i64 4, ptr %7) #6
  call void @llvm.lifetime.end.p0(i64 4, ptr %6) #6
  call void @llvm.lifetime.end.p0(i64 160, ptr %5) #6
  ret i32 %32
}