; Function Attrs: nounwind uwtable
define dso_local i32 @scontrol_update_res(i32 noundef %0, ptr noundef readonly captures(none) %1) local_unnamed_addr #0 {
  %3 = alloca %struct.resv_desc_msg, align 8
  %4 = alloca i32, align 4
  call void @llvm.lifetime.start.p0(i64 160, ptr nonnull %3) #10
  call void @llvm.lifetime.start.p0(i64 4, ptr nonnull %4) #10
  call void @slurm_init_resv_desc_msg(ptr noundef nonnull %3) #10
  %5 = call fastcc i32 @_parse_res_options(i32 noundef %0, ptr noundef %1, ptr noundef nonnull @.str, ptr noundef %3, ptr noundef %4)
  %.not = icmp eq i32 %5, 0
  br i1 %.not, label %6, label %18

6:                                                ; preds = %2
  %7 = getelementptr inbounds nuw i8, ptr %3, i64 88
  %8 = load ptr, ptr %7, align 8
  %9 = icmp eq ptr %8, null
  br i1 %9, label %10, label %12

10:                                               ; preds = %6
  store i32 1, ptr @exit_code, align 4
  %11 = call i32 (ptr, ...) @error(ptr noundef nonnull @.str.1) #10
  br label %18

12:                                               ; preds = %6
  %13 = call i32 @slurm_update_reservation(ptr noundef nonnull %3) #10
  %.not6 = icmp eq i32 %13, 0
  br i1 %.not6, label %17, label %14

14:                                               ; preds = %12
  store i32 1, ptr @exit_code, align 4
  %15 = tail call ptr @__errno_location() #11
  %16 = load i32, ptr %15, align 4
  br label %18

17:                                               ; preds = %12
  %puts = call i32 @puts(ptr nonnull dereferenceable(1) @str)
  br label %18

18:                                               ; preds = %14, %17, %2, %10
  %.0 = phi i32 [ -1, %2 ], [ 0, %10 ], [ %16, %14 ], [ 0, %17 ]
  %19 = load i32, ptr %4, align 4
  call void @slurm_free_resv_desc_msg_part(ptr noundef nonnull %3, i32 noundef %19) #10
  call void @llvm.lifetime.end.p0(i64 4, ptr nonnull %4) #10
  call void @llvm.lifetime.end.p0(i64 160, ptr nonnull %3) #10
  ret i32 %.0
}